target datalayout = "e-m:e-p270:32:32-p271:32:32-p272:64:64-i64:64-i128:128-f80:128-n8:16:32:64-S128"
target triple = "x86_64-pc-linux-gnu"

%struct.test_ssl_memio_ctx = type { ptr, ptr, ptr, ptr, ptr, ptr, ptr, i32, ptr, i32, %struct.test_ssl_cbf, %struct.test_ssl_cbf, [65536 x i8], i32, [65536 x i8], i32 }
%struct.test_ssl_cbf = type { ptr, ptr, ptr, ptr, ptr, ptr, ptr, ptr, ptr, ptr, ptr, ptr, i32, i32, i32, i8 }

; Function Attrs: inlinehint nounwind uwtable
define internal i32 @test_ssl_memio_write_cb(ptr noundef %0, ptr noundef %1, i32 noundef %2, ptr noundef %3) #4 {
  %5 = alloca i32, align 4
  %6 = alloca ptr, align 8
  %7 = alloca ptr, align 8
  %8 = alloca i32, align 4
  %9 = alloca ptr, align 8
  %10 = alloca ptr, align 8
  %11 = alloca ptr, align 8
  %12 = alloca ptr, align 8
  %13 = alloca i32, align 4
  store ptr %0, ptr %6, align 8, !tbaa !85
  store ptr %1, ptr %7, align 8, !tbaa !32
  store i32 %2, ptr %8, align 4, !tbaa !10
  store ptr %3, ptr %9, align 8, !tbaa !9
  call void @llvm.lifetime.start.p0(i64 8, ptr %10) #14
  call void @llvm.lifetime.start.p0(i64 8, ptr %11) #14
  call void @llvm.lifetime.start.p0(i64 8, ptr %12) #14
  %14 = load ptr, ptr %9, align 8, !tbaa !9
  store ptr %14, ptr %10, align 8, !tbaa !30
  %15 = load ptr, ptr %6, align 8, !tbaa !85
  %16 = call i32 @wolfSSL_GetSide(ptr noundef %15)
  %17 = icmp eq i32 %16, 0
  br i1 %17, label %18, label %24

18:                                               ; preds = %4
  %19 = load ptr, ptr %10, align 8, !tbaa !30
  %20 = getelementptr inbounds nuw %struct.test_ssl_memio_ctx, ptr %19, i32 0, i32 12
  %21 = getelementptr inbounds [65536 x i8], ptr %20, i64 0, i64 0
  store ptr %21, ptr %11, align 8, !tbaa !32
  %22 = load ptr, ptr %10, align 8, !tbaa !30
  %23 = getelementptr inbounds nuw %struct.test_ssl_memio_ctx, ptr %22, i32 0, i32 13
  store ptr %23, ptr %12, align 8, !tbaa !50
  br label %30

24:                                               ; preds = %4
  %25 = load ptr, ptr %10, align 8, !tbaa !30
  %26 = getelementptr inbounds nuw %struct.test_ssl_memio_ctx, ptr %25, i32 0, i32 14
  %27 = getelementptr inbounds [65536 x i8], ptr %26, i64 0, i64 0
  store ptr %27, ptr %11, align 8, !tbaa !32
  %28 = load ptr, ptr %10, align 8, !tbaa !30
  %29 = getelementptr inbounds nuw %struct.test_ssl_memio_ctx, ptr %28, i32 0, i32 15
  store ptr %29, ptr %12, align 8, !tbaa !50
  br label %30

30:                                               ; preds = %24, %18
  %31 = load ptr, ptr %12, align 8, !tbaa !50
  %32 = load i32, ptr %31, align 4, !tbaa !10
  %33 = load i32, ptr %8, align 4, !tbaa !10
  %34 = add nsw i32 %32, %33
  %35 = icmp ugt i32 %34, 65536
  br i1 %35, label %36, label %37

36:                                               ; preds = %30
  store i32 -2, ptr %5, align 4
  store i32 1, ptr %13, align 4
  br label %51

37:                                               ; preds = %30
  %38 = load ptr, ptr %11, align 8, !tbaa !32
  %39 = load ptr, ptr %12, align 8, !tbaa !50
  %40 = load i32, ptr %39, align 4, !tbaa !10
  %41 = sext i32 %40 to i64
  %42 = getelementptr inbounds i8, ptr %38, i64 %41
  %43 = load ptr, ptr %7, align 8, !tbaa !32
  %44 = load i32, ptr %8, align 4, !tbaa !10
  %45 = sext i32 %44 to i64
  call void @llvm.memcpy.p0.p0.i64(ptr align 1 %42, ptr align 1 %43, i64 %45, i1 false)
  %46 = load i32, ptr %8, align 4, !tbaa !10
  %47 = load ptr, ptr %12, align 8, !tbaa !50
  %48 = load i32, ptr %47, align 4, !tbaa !10
  %49 = add nsw i32 %48, %46
  store i32 %49, ptr %47, align 4, !tbaa !10
  %50 = load i32, ptr %8, align 4, !tbaa !10
  store i32 %50, ptr %5, align 4
  store i32 1, ptr %13, align 4
  br label %51

51:                                               ; preds = %37, %36
  call void @llvm.lifetime.end.p0(i64 8, ptr %12) #14
  call void @llvm.lifetime.end.p0(i64 8, ptr %11) #14
  call void @llvm.lifetime.end.p0(i64 8, ptr %10) #14
  %52 = load i32, ptr %5, align 4
  ret i32 %52
}