; Function Attrs: inlinehint nounwind uwtable
define internal noundef i32 @test_ssl_memio_write_cb(ptr noundef %0, ptr noundef readonly captures(none) %1, i32 noundef %2, ptr noundef captures(none) %3) #5 {
  %5 = tail call i32 @wolfSSL_GetSide(ptr noundef %0) #27
  %6 = icmp eq i32 %5, 0
  %.0.v = select i1 %6, i64 65840, i64 131380
  %.0 = getelementptr inbounds nuw i8, ptr %3, i64 %.0.v
  %7 = load i32, ptr %.0, align 4, !tbaa !67
  %8 = add nsw i32 %7, %2
  %9 = icmp ugt i32 %8, 65536
  br i1 %9, label %18, label %10

10:                                               ; preds = %4
  %11 = select i1 %6, i64 304, i64 65844
  %12 = getelementptr inbounds nuw i8, ptr %3, i64 %11
  %13 = sext i32 %7 to i64
  %14 = getelementptr inbounds i8, ptr %12, i64 %13
  %15 = sext i32 %2 to i64
  tail call void @llvm.memcpy.p0.p0.i64(ptr nonnull align 1 %14, ptr align 1 %1, i64 %15, i1 false)
  %16 = load i32, ptr %.0, align 4, !tbaa !67
  %17 = add nsw i32 %16, %2
  store i32 %17, ptr %.0, align 4, !tbaa !67
  br label %18

18:                                               ; preds = %4, %10
  %.016 = phi i32 [ %2, %10 ], [ -2, %4 ]
  ret i32 %.016
}